target datalayout = "e-m:e-p270:32:32-p271:32:32-p272:64:64-i64:64-i128:128-f80:128-n8:16:32:64-S128"
target triple = "x86_64-pc-linux-gnu"

%struct.darktable_t = type { %struct.dt_codepath_t, i32, i32, ptr, ptr, ptr, ptr, ptr, ptr, ptr, ptr, ptr, ptr, ptr, ptr, ptr, ptr, ptr, ptr, ptr, ptr, ptr, ptr, ptr, ptr, ptr, ptr, ptr, ptr, ptr, [64 x %struct.dt_pthread_mutex_t], %struct.dt_pthread_mutex_t, %struct.dt_pthread_mutex_t, %struct.dt_pthread_mutex_t, %struct.dt_pthread_mutex_t, %struct.dt_pthread_mutex_t, ptr, ptr, ptr, ptr, ptr, ptr, ptr, ptr, ptr, ptr, ptr, ptr, ptr, %struct.dt_lua_state_t, ptr, double, ptr, i32, [47 x i32], i32, i32, ptr, ptr, %struct.dt_sys_resources_t, %struct.dt_backthumb_t, %struct.dt_gimp_t }
%struct.dt_codepath_t = type { i8, [3 x i8] }
%struct.dt_pthread_mutex_t = type { %union.pthread_mutex_t }
%union.pthread_mutex_t = type { %struct.__pthread_mutex_s }
%struct.__pthread_mutex_s = type { i32, i32, i32, i32, i32, i16, i16, %struct.__pthread_internal_list }
%struct.__pthread_internal_list = type { ptr, ptr }
%struct.dt_lua_state_t = type { i32 }
%struct.dt_sys_resources_t = type { i64, i64, ptr, ptr, i32 }
%struct.dt_backthumb_t = type { double, double, i32, i32, i32, i32 }
%struct.dt_gimp_t = type { i32, ptr, ptr, i32, i32 }
%struct.dt_dev_pixelpipe_t = type { %struct.dt_dev_pixelpipe_cache_t, i32, i64, ptr, i32, i32, float, i32, i32, [12 x i8], %struct.dt_iop_buffer_dsc_t, ptr, ptr, ptr, ptr, i32, i32, i32, i32, ptr, i64, i32, i32, float, float, float, i64, %struct.dt_pthread_mutex_t, %struct.dt_pthread_mutex_t, %struct.dt_pthread_mutex_t, i32, i32, i32, %struct.dt_dev_detail_mask_t, i32, i32, i32, i32, i32, i32, i32, i32, i32, i32, i32, i32, i32, i32, [8 x i8], %struct.dt_image_t, i32, ptr, i32, ptr, ptr, ptr, i32, ptr, i64, [8 x i8] }
%struct.dt_dev_pixelpipe_cache_t = type { i32, i64, i64, ptr, ptr, ptr, ptr, ptr, ptr, i64, i32, i64, i64, i32, i32, i32 }
%struct.dt_iop_buffer_dsc_t = type { i32, i32, i32, [6 x [6 x i8]], %struct.anon, [12 x i8], %struct.anon.0, [4 x float], i32, [12 x i8] }
%struct.anon = type { i16, i16 }
%struct.anon.0 = type { i32, [12 x i8], [4 x float] }
%struct.dt_dev_detail_mask_t = type { %struct.dt_iop_roi_t, i64, ptr }
%struct.dt_iop_roi_t = type { i32, i32, i32, i32, float }
%struct.dt_image_t = type { i32, i32, float, float, float, float, float, float, float, [64 x i8], [64 x i8], [128 x i8], [64 x i8], [64 x i8], [64 x i8], [64 x i8], i64, i32, %union.dt_image_correction_data_t, [64 x i8], [64 x i8], [64 x i8], [128 x i8], i32, [256 x i8], i32, i32, i32, i32, i32, i32, i32, i32, i32, i32, float, i32, i32, i32, i32, i32, i32, i64, i64, i64, i64, i32, [12 x i8], %struct.dt_iop_buffer_dsc_t, [9 x float], ptr, i32, i32, %struct.dt_image_raw_parameters_t, %struct.dt_image_geoloc_t, %struct._color_harmony_t, i16, [4 x i16], i32, i32, float, float, [4 x float], [4 x [3 x float]], [4 x float], ptr, ptr, i32, i32, [8 x i8] }
%union.dt_image_correction_data_t = type { %struct.anon.2 }
%struct.anon.2 = type { i32, float, [11 x float], [11 x float], [11 x float], [11 x float], [11 x float] }
%struct.dt_image_raw_parameters_t = type { i32 }
%struct.dt_image_geoloc_t = type { double, double, double }
%struct._color_harmony_t = type { i32, i32, i32 }

@darktable = external global %struct.darktable_t, align 8
@.str.8 = private unnamed_addr constant [21 x i8] c"pipecache invalidate\00", align 1
@.str.9 = private unnamed_addr constant [16 x i8] c"pipecache flush\00", align 1
@.str.10 = private unnamed_addr constant [33 x i8] c" %i cachelines after ioporder=%i\00", align 1

; Function Attrs: nounwind uwtable
define internal void @_mark_invalid_cacheline(ptr noundef %0, i32 noundef %1) #0 {
  %3 = alloca ptr, align 8
  %4 = alloca i32, align 4
  store ptr %0, ptr %3, align 8, !tbaa !15
  store i32 %1, ptr %4, align 4, !tbaa !11
  %5 = load ptr, ptr %3, align 8, !tbaa !15
  %6 = getelementptr inbounds nuw %struct.dt_dev_pixelpipe_cache_t, ptr %5, i32 0, i32 6
  %7 = load ptr, ptr %6, align 8, !tbaa !30
  %8 = load i32, ptr %4, align 4, !tbaa !11
  %9 = sext i32 %8 to i64
  %10 = getelementptr inbounds i64, ptr %7, i64 %9
  store i64 0, ptr %10, align 8, !tbaa !13
  %11 = load ptr, ptr %3, align 8, !tbaa !15
  %12 = getelementptr inbounds nuw %struct.dt_dev_pixelpipe_cache_t, ptr %11, i32 0, i32 8
  %13 = load ptr, ptr %12, align 8, !tbaa !32
  %14 = load i32, ptr %4, align 4, !tbaa !11
  %15 = sext i32 %14 to i64
  %16 = getelementptr inbounds i32, ptr %13, i64 %15
  store i32 0, ptr %16, align 4, !tbaa !11
  ret void
}

; Function Attrs: nounwind uwtable
define void @dt_dev_pixelpipe_cache_invalidate_later(ptr noundef %0, i32 noundef %1) #0 {
  %3 = alloca ptr, align 8
  %4 = alloca i32, align 4
  %5 = alloca ptr, align 8
  %6 = alloca i32, align 4
  %7 = alloca i32, align 4
  store ptr %0, ptr %3, align 8, !tbaa !6
  store i32 %1, ptr %4, align 4, !tbaa !11
  call void @llvm.lifetime.start.p0(i64 8, ptr %5) #17
  %8 = load ptr, ptr %3, align 8, !tbaa !6
  %9 = getelementptr inbounds nuw %struct.dt_dev_pixelpipe_t, ptr %8, i32 0, i32 0
  store ptr %9, ptr %5, align 8, !tbaa !15
  call void @llvm.lifetime.start.p0(i64 4, ptr %6) #17
  store i32 0, ptr %6, align 4, !tbaa !11
  call void @llvm.lifetime.start.p0(i64 4, ptr %7) #17
  store i32 2, ptr %7, align 4, !tbaa !11
  br label %10

10:                                               ; preds = %42, %2
  %11 = load i32, ptr %7, align 4, !tbaa !11
  %12 = load ptr, ptr %5, align 8, !tbaa !15
  %13 = getelementptr inbounds nuw %struct.dt_dev_pixelpipe_cache_t, ptr %12, i32 0, i32 0
  %14 = load i32, ptr %13, align 8, !tbaa !17
  %15 = icmp slt i32 %11, %14
  br i1 %15, label %17, label %16

16:                                               ; preds = %10
  call void @llvm.lifetime.end.p0(i64 4, ptr %7) #17
  br label %45

17:                                               ; preds = %10
  %18 = load ptr, ptr %5, align 8, !tbaa !15
  %19 = getelementptr inbounds nuw %struct.dt_dev_pixelpipe_cache_t, ptr %18, i32 0, i32 8
  %20 = load ptr, ptr %19, align 8, !tbaa !32
  %21 = load i32, ptr %7, align 4, !tbaa !11
  %22 = sext i32 %21 to i64
  %23 = getelementptr inbounds i32, ptr %20, i64 %22
  %24 = load i32, ptr %23, align 4, !tbaa !11
  %25 = load i32, ptr %4, align 4, !tbaa !11
  %26 = icmp sge i32 %24, %25
  br i1 %26, label %27, label %41

27:                                               ; preds = %17
  %28 = load ptr, ptr %5, align 8, !tbaa !15
  %29 = getelementptr inbounds nuw %struct.dt_dev_pixelpipe_cache_t, ptr %28, i32 0, i32 6
  %30 = load ptr, ptr %29, align 8, !tbaa !30
  %31 = load i32, ptr %7, align 4, !tbaa !11
  %32 = sext i32 %31 to i64
  %33 = getelementptr inbounds i64, ptr %30, i64 %32
  %34 = load i64, ptr %33, align 8, !tbaa !13
  %35 = icmp ne i64 %34, 0
  br i1 %35, label %36, label %41

36:                                               ; preds = %27
  %37 = load ptr, ptr %5, align 8, !tbaa !15
  %38 = load i32, ptr %7, align 4, !tbaa !11
  call void @_mark_invalid_cacheline(ptr noundef %37, i32 noundef %38)
  %39 = load i32, ptr %6, align 4, !tbaa !11
  %40 = add nsw i32 %39, 1
  store i32 %40, ptr %6, align 4, !tbaa !11
  br label %41

41:                                               ; preds = %36, %27, %17
  br label %42

42:                                               ; preds = %41
  %43 = load i32, ptr %7, align 4, !tbaa !11
  %44 = add nsw i32 %43, 1
  store i32 %44, ptr %7, align 4, !tbaa !11
  br label %10

45:                                               ; preds = %16
  %46 = load i32, ptr %6, align 4, !tbaa !11
  %47 = icmp ne i32 %46, 0
  br i1 %47, label %48, label %68

48:                                               ; preds = %45
  br label %49

49:                                               ; preds = %48
  %50 = load i32, ptr getelementptr inbounds nuw (%struct.darktable_t, ptr @darktable, i32 0, i32 2), align 8, !tbaa !54
  %51 = and i32 33554432, %50
  %52 = icmp ne i32 %51, 0
  br i1 %52, label %53, label %65

53:                                               ; preds = %49
  %54 = load i32, ptr getelementptr inbounds nuw (%struct.darktable_t, ptr @darktable, i32 0, i32 2), align 8, !tbaa !54
  %55 = xor i32 %54, -1
  %56 = and i32 0, %55
  %57 = icmp ne i32 %56, 0
  br i1 %57, label %65, label %58

58:                                               ; preds = %53
  %59 = load i32, ptr %4, align 4, !tbaa !11
  %60 = icmp ne i32 %59, 0
  %61 = select i1 %60, ptr @.str.8, ptr @.str.9
  %62 = load ptr, ptr %3, align 8, !tbaa !6
  %63 = load i32, ptr %6, align 4, !tbaa !11
  %64 = load i32, ptr %4, align 4, !tbaa !11
  call void (ptr, ptr, ptr, i32, ptr, ptr, ptr, ...) @dt_print_pipe_ext(ptr noundef %61, ptr noundef %62, ptr noundef null, i32 noundef -2, ptr noundef null, ptr noundef null, ptr noundef @.str.10, i32 noundef %63, i32 noundef %64)
  br label %65

65:                                               ; preds = %58, %53, %49
  br label %66

66:                                               ; preds = %65
  br label %67

67:                                               ; preds = %66
  br label %68

68:                                               ; preds = %67, %45
  call void @llvm.lifetime.end.p0(i64 4, ptr %6) #17
  call void @llvm.lifetime.end.p0(i64 8, ptr %5) #17
  ret void
}

; Function Attrs: nounwind uwtable
define void @dt_dev_pixelpipe_usedetails(ptr noundef %0) #0 {
  %2 = alloca ptr, align 8
  store ptr %0, ptr %2, align 8, !tbaa !6
  %3 = load ptr, ptr %2, align 8, !tbaa !6
  %4 = getelementptr inbounds nuw %struct.dt_dev_pixelpipe_t, ptr %3, i32 0, i32 32
  %5 = load i32, ptr %4, align 16, !tbaa !89
  %6 = icmp ne i32 %5, 0
  br i1 %6, label %9, label %7

7:                                                ; preds = %1
  %8 = load ptr, ptr %2, align 8, !tbaa !6
  call void @dt_dev_pixelpipe_cache_invalidate_later(ptr noundef %8, i32 noundef 0)
  br label %9

9:                                                ; preds = %7, %1
  %10 = load ptr, ptr %2, align 8, !tbaa !6
  %11 = getelementptr inbounds nuw %struct.dt_dev_pixelpipe_t, ptr %10, i32 0, i32 32
  store i32 1, ptr %11, align 16, !tbaa !89
  ret void
}