; Function Attrs: nounwind uwtable
define void @dt_dev_pixelpipe_usedetails(ptr noundef %0) local_unnamed_addr #0 {
  %2 = getelementptr inbounds nuw i8, ptr %0, i64 528
  %3 = load i32, ptr %2, align 16, !tbaa !83
  %.not = icmp eq i32 %3, 0
  br i1 %.not, label %4, label %dt_dev_pixelpipe_cache_invalidate_later.exit

4:                                                ; preds = %1
  %5 = load i32, ptr %0, align 8, !tbaa !6
  %6 = icmp sgt i32 %5, 2
  br i1 %6, label %.lr.ph.i, label %dt_dev_pixelpipe_cache_invalidate_later.exit

.lr.ph.i:                                         ; preds = %4
  %7 = getelementptr inbounds nuw i8, ptr %0, i64 64
  %8 = load ptr, ptr %7, align 8, !tbaa !24
  %9 = getelementptr inbounds nuw i8, ptr %0, i64 48
  br label %10

._crit_edge.i:                                    ; preds = %20
  %.not.i = icmp eq i32 %.1.i, 0
  br i1 %.not.i, label %dt_dev_pixelpipe_cache_invalidate_later.exit, label %24

10:                                               ; preds = %20, %.lr.ph.i
  %11 = phi i32 [ %5, %.lr.ph.i ], [ %21, %20 ]
  %indvars.iv.i = phi i64 [ 2, %.lr.ph.i ], [ %indvars.iv.next.i, %20 ]
  %.01622.i = phi i32 [ 0, %.lr.ph.i ], [ %.1.i, %20 ]
  %12 = getelementptr inbounds nuw i32, ptr %8, i64 %indvars.iv.i
  %13 = load i32, ptr %12, align 4, !tbaa !26
  %.not19.i = icmp slt i32 %13, 0
  br i1 %.not19.i, label %20, label %14

14:                                               ; preds = %10
  %15 = load ptr, ptr %9, align 8, !tbaa !22
  %16 = getelementptr inbounds nuw i64, ptr %15, i64 %indvars.iv.i
  %17 = load i64, ptr %16, align 8, !tbaa !25
  %.not20.i = icmp eq i64 %17, 0
  br i1 %.not20.i, label %20, label %18

18:                                               ; preds = %14
  store i64 0, ptr %16, align 8, !tbaa !25
  store i32 0, ptr %12, align 4, !tbaa !26
  %19 = add nsw i32 %.01622.i, 1
  %.pre.i = load i32, ptr %0, align 8, !tbaa !6
  br label %20

20:                                               ; preds = %18, %14, %10
  %21 = phi i32 [ %.pre.i, %18 ], [ %11, %14 ], [ %11, %10 ]
  %.1.i = phi i32 [ %19, %18 ], [ %.01622.i, %14 ], [ %.01622.i, %10 ]
  %indvars.iv.next.i = add nuw nsw i64 %indvars.iv.i, 1
  %22 = sext i32 %21 to i64
  %23 = icmp slt i64 %indvars.iv.next.i, %22
  br i1 %23, label %10, label %._crit_edge.i

24:                                               ; preds = %._crit_edge.i
  %25 = load i32, ptr getelementptr inbounds nuw (i8, ptr @darktable, i64 8), align 8, !tbaa !48
  %26 = and i32 %25, 33554432
  %.not17.i = icmp eq i32 %26, 0
  br i1 %.not17.i, label %dt_dev_pixelpipe_cache_invalidate_later.exit, label %27

27:                                               ; preds = %24
  tail call void (ptr, ptr, ptr, i32, ptr, ptr, ptr, ...) @dt_print_pipe_ext(ptr noundef nonnull @.str.9, ptr noundef nonnull %0, ptr noundef null, i32 noundef -2, ptr noundef null, ptr noundef null, ptr noundef nonnull @.str.10, i32 noundef %.1.i, i32 noundef 0)
  br label %dt_dev_pixelpipe_cache_invalidate_later.exit

dt_dev_pixelpipe_cache_invalidate_later.exit:     ; preds = %27, %24, %._crit_edge.i, %4, %1
  store i32 1, ptr %2, align 16, !tbaa !83
  ret void
}